; Function Attrs: inlinehint mustprogress nounwind uwtable
define internal fastcc void @"_ZZN9grpc_core29AwsExternalAccountCredentials12AwsFetchBody11AsyncFinishEN4absl12lts_202407228StatusOrINSt7__cxx1112basic_stringIcSt11char_traitsIcESaIcEEEEEEN3$_0D2Ev"(ptr noundef nonnull readonly align 8 dereferenceable(56) %0) unnamed_addr #7 align 2 personality ptr @__gxx_personality_v0 {
  %2 = getelementptr inbounds nuw i8, ptr %0, i64 16
  %3 = load i64, ptr %2, align 8, !tbaa !54
  %4 = icmp eq i64 %3, 1
  br i1 %4, label %_ZN4absl12lts_202407226StatusD2Ev.exit.i, label %14

_ZN4absl12lts_202407226StatusD2Ev.exit.i:         ; preds = %1
  %5 = getelementptr inbounds nuw i8, ptr %0, i64 24
  %6 = load ptr, ptr %5, align 8, !tbaa !56
  %7 = getelementptr inbounds nuw i8, ptr %0, i64 40
  %8 = icmp eq ptr %6, %7
  br i1 %8, label %_ZNKSt7__cxx1112basic_stringIcSt11char_traitsIcESaIcEE11_M_is_localEv.exit.thread.i.i.i, label %_ZNKSt7__cxx1112basic_stringIcSt11char_traitsIcESaIcEE11_M_is_localEv.exit.i.i.i

_ZNKSt7__cxx1112basic_stringIcSt11char_traitsIcESaIcEE11_M_is_localEv.exit.thread.i.i.i: ; preds = %_ZN4absl12lts_202407226StatusD2Ev.exit.i
  %9 = getelementptr inbounds nuw i8, ptr %0, i64 32
  %10 = load i64, ptr %9, align 8, !tbaa !38
  %11 = icmp ult i64 %10, 16
  tail call void @llvm.assume(i1 %11)
  br label %_ZN4absl12lts_2024072217internal_statusor12StatusOrDataINSt7__cxx1112basic_stringIcSt11char_traitsIcESaIcEEEED2Ev.exit

_ZNKSt7__cxx1112basic_stringIcSt11char_traitsIcESaIcEE11_M_is_localEv.exit.i.i.i: ; preds = %_ZN4absl12lts_202407226StatusD2Ev.exit.i
  %12 = load i64, ptr %7, align 8, !tbaa !39
  %13 = add i64 %12, 1
  tail call void @_ZdlPvm(ptr noundef %6, i64 noundef %13) #36
  br label %_ZN4absl12lts_2024072217internal_statusor12StatusOrDataINSt7__cxx1112basic_stringIcSt11char_traitsIcESaIcEEEED2Ev.exit

14:                                               ; preds = %1
  %15 = and i64 %3, 1
  %.not.i.i1.i = icmp eq i64 %15, 0
  br i1 %.not.i.i1.i, label %16, label %_ZN4absl12lts_2024072217internal_statusor12StatusOrDataINSt7__cxx1112basic_stringIcSt11char_traitsIcESaIcEEEED2Ev.exit

16:                                               ; preds = %14
  %17 = inttoptr i64 %3 to ptr
  invoke void @_ZNK4absl12lts_2024072215status_internal9StatusRep5UnrefEv(ptr noundef nonnull align 8 dereferenceable(48) %17)
          to label %_ZN4absl12lts_2024072217internal_statusor12StatusOrDataINSt7__cxx1112basic_stringIcSt11char_traitsIcESaIcEEEED2Ev.exit unwind label %18

18:                                               ; preds = %16
  %19 = landingpad { ptr, i32 }
          catch ptr null
  %20 = extractvalue { ptr, i32 } %19, 0
  tail call void @__clang_call_terminate(ptr %20) #37
  unreachable

_ZN4absl12lts_2024072217internal_statusor12StatusOrDataINSt7__cxx1112basic_stringIcSt11char_traitsIcESaIcEEEED2Ev.exit: ; preds = %_ZNKSt7__cxx1112basic_stringIcSt11char_traitsIcESaIcEE11_M_is_localEv.exit.thread.i.i.i, %_ZNKSt7__cxx1112basic_stringIcSt11char_traitsIcESaIcEE11_M_is_localEv.exit.i.i.i, %14, %16
  %21 = getelementptr inbounds nuw i8, ptr %0, i64 8
  %22 = load ptr, ptr %21, align 8, !tbaa !67
  %.not.i = icmp eq ptr %22, null
  br i1 %.not.i, label %_ZN9grpc_core13RefCountedPtrINS_26ExternalAccountCredentials9FetchBodyEED2Ev.exit, label %23

23:                                               ; preds = %_ZN4absl12lts_2024072217internal_statusor12StatusOrDataINSt7__cxx1112basic_stringIcSt11char_traitsIcESaIcEEEED2Ev.exit
  %24 = getelementptr inbounds nuw i8, ptr %22, i64 8
  %25 = atomicrmw sub ptr %24, i64 1 acq_rel, align 8
  %26 = icmp eq i64 %25, 1
  br i1 %26, label %27, label %_ZN9grpc_core13RefCountedPtrINS_26ExternalAccountCredentials9FetchBodyEED2Ev.exit, !prof !58

27:                                               ; preds = %23
  %28 = load ptr, ptr %22, align 16, !tbaa !12
  %29 = getelementptr inbounds nuw i8, ptr %28, i64 16
  %30 = load ptr, ptr %29, align 8
  tail call void %30(ptr noundef nonnull align 16 dereferenceable(48) %22) #34
  br label %_ZN9grpc_core13RefCountedPtrINS_26ExternalAccountCredentials9FetchBodyEED2Ev.exit

_ZN9grpc_core13RefCountedPtrINS_26ExternalAccountCredentials9FetchBodyEED2Ev.exit: ; preds = %_ZN4absl12lts_2024072217internal_statusor12StatusOrDataINSt7__cxx1112basic_stringIcSt11char_traitsIcESaIcEEEED2Ev.exit, %23, %27
  ret void
}